; Function Attrs: mustprogress nounwind uwtable
define hidden void @_ZN9Assembler4addqE7Addressi(ptr nocapture noundef nonnull readonly align 8 dereferenceable(40) %0, ptr noundef %1, i32 noundef %2) local_unnamed_addr #0 align 2 {
  %4 = alloca %class.Address, align 8
  %5 = alloca %class.Address, align 8
  %6 = getelementptr inbounds i8, ptr %0, i64 8
  %7 = load ptr, ptr %6, align 8
  %8 = getelementptr inbounds i8, ptr %7, i64 16
  %9 = load ptr, ptr %8, align 8
  %10 = getelementptr inbounds i8, ptr %7, i64 8
  store ptr %9, ptr %10, align 8
  call void @llvm.memcpy.p0.p0.i64(ptr noundef nonnull align 8 dereferenceable(21) %4, ptr noundef nonnull align 8 dereferenceable(21) %1, i64 21, i1 false)
  %11 = getelementptr inbounds i8, ptr %4, i64 24
  %12 = getelementptr inbounds i8, ptr %1, i64 24
  %13 = load ptr, ptr %12, align 8
  %14 = getelementptr inbounds i8, ptr %13, i64 16
  %15 = load ptr, ptr %14, align 8
  call void %15(ptr noundef nonnull align 8 dereferenceable(20) %12, ptr noundef nonnull align 8 dereferenceable(40) %11) #18
  call void @_ZN9Assembler7prefixqE7Address(ptr noundef nonnull align 8 dereferenceable(40) %0, ptr noundef nonnull %4)
  call void @llvm.memcpy.p0.p0.i64(ptr noundef nonnull align 8 dereferenceable(21) %5, ptr noundef nonnull align 8 dereferenceable(21) %1, i64 21, i1 false)
  %16 = getelementptr inbounds i8, ptr %5, i64 24
  %17 = load ptr, ptr %12, align 8
  %18 = getelementptr inbounds i8, ptr %17, i64 16
  %19 = load ptr, ptr %18, align 8
  call void %19(ptr noundef nonnull align 8 dereferenceable(20) %12, ptr noundef nonnull align 8 dereferenceable(40) %16) #18
  call void @_ZN9Assembler18emit_arith_operandEi8Register7Addressi(ptr noundef nonnull align 8 dereferenceable(40) %0, i32 noundef 129, i32 0, ptr noundef nonnull %5, i32 noundef %2)
  %20 = load ptr, ptr %6, align 8
  %21 = getelementptr inbounds i8, ptr %20, i64 8
  store ptr null, ptr %21, align 8
  ret void
}